target datalayout = "e-m:e-p270:32:32-p271:32:32-p272:64:64-i64:64-i128:128-f80:128-n8:16:32:64-S128"
target triple = "x86_64-pc-linux-gnu"

%struct.AVFilter = type { ptr, ptr, ptr, ptr, ptr, i32 }

@.str.20 = private unnamed_addr constant [6 x i8] c"  %s\0A\00", align 1
@.str.143 = private unnamed_addr constant [27 x i8] c"No filter name specified.\0A\00", align 1
@.str.144 = private unnamed_addr constant [22 x i8] c"Unknown filter '%s'.\0A\00", align 1
@.str.145 = private unnamed_addr constant [11 x i8] c"Filter %s\0A\00", align 1
@.str.146 = private unnamed_addr constant [31 x i8] c"    slice threading supported\0A\00", align 1
@.str.147 = private unnamed_addr constant [13 x i8] c"    Inputs:\0A\00", align 1
@.str.148 = private unnamed_addr constant [21 x i8] c"       #%d: %s (%s)\0A\00", align 1
@.str.149 = private unnamed_addr constant [44 x i8] c"        dynamic (depending on the options)\0A\00", align 1
@.str.150 = private unnamed_addr constant [30 x i8] c"        none (source filter)\0A\00", align 1
@.str.151 = private unnamed_addr constant [14 x i8] c"    Outputs:\0A\00", align 1
@.str.152 = private unnamed_addr constant [28 x i8] c"        none (sink filter)\0A\00", align 1
@.str.153 = private unnamed_addr constant [67 x i8] c"This filter has support for timeline through the 'enable' option.\0A\00", align 1

; Function Attrs: nounwind uwtable
define internal void @show_help_filter(ptr noundef %0) #0 {
  %2 = alloca ptr, align 8
  %3 = alloca ptr, align 8
  %4 = alloca i32, align 4
  %5 = alloca i32, align 4
  %6 = alloca i32, align 4
  store ptr %0, ptr %2, align 8, !tbaa !8
  call void @llvm.lifetime.start.p0(i64 8, ptr %3) #11
  %7 = load ptr, ptr %2, align 8, !tbaa !8
  %8 = call ptr @avfilter_get_by_name(ptr noundef %7)
  store ptr %8, ptr %3, align 8, !tbaa !52
  call void @llvm.lifetime.start.p0(i64 4, ptr %4) #11
  call void @llvm.lifetime.start.p0(i64 4, ptr %5) #11
  %9 = load ptr, ptr %2, align 8, !tbaa !8
  %10 = icmp ne ptr %9, null
  br i1 %10, label %12, label %11

11:                                               ; preds = %1
  call void (ptr, i32, ptr, ...) @av_log(ptr noundef null, i32 noundef 16, ptr noundef @.str.143)
  store i32 1, ptr %6, align 4
  br label %136

12:                                               ; preds = %1
  %13 = load ptr, ptr %3, align 8, !tbaa !52
  %14 = icmp ne ptr %13, null
  br i1 %14, label %17, label %15

15:                                               ; preds = %12
  %16 = load ptr, ptr %2, align 8, !tbaa !8
  call void (ptr, i32, ptr, ...) @av_log(ptr noundef null, i32 noundef 16, ptr noundef @.str.144, ptr noundef %16)
  store i32 1, ptr %6, align 4
  br label %136

17:                                               ; preds = %12
  br label %18

18:                                               ; preds = %17
  %19 = load ptr, ptr %3, align 8, !tbaa !52
  %20 = getelementptr inbounds nuw %struct.AVFilter, ptr %19, i32 0, i32 0
  %21 = load ptr, ptr %20, align 8, !tbaa !54
  %22 = call i32 (ptr, ...) @printf(ptr noundef @.str.145, ptr noundef %21)
  %23 = load ptr, ptr %3, align 8, !tbaa !52
  %24 = getelementptr inbounds nuw %struct.AVFilter, ptr %23, i32 0, i32 1
  %25 = load ptr, ptr %24, align 8, !tbaa !57
  %26 = icmp ne ptr %25, null
  br i1 %26, label %27, label %32

27:                                               ; preds = %18
  %28 = load ptr, ptr %3, align 8, !tbaa !52
  %29 = getelementptr inbounds nuw %struct.AVFilter, ptr %28, i32 0, i32 1
  %30 = load ptr, ptr %29, align 8, !tbaa !57
  %31 = call i32 (ptr, ...) @printf(ptr noundef @.str.20, ptr noundef %30)
  br label %32

32:                                               ; preds = %27, %18
  %33 = load ptr, ptr %3, align 8, !tbaa !52
  %34 = getelementptr inbounds nuw %struct.AVFilter, ptr %33, i32 0, i32 5
  %35 = load i32, ptr %34, align 8, !tbaa !58
  %36 = and i32 %35, 4
  %37 = icmp ne i32 %36, 0
  br i1 %37, label %38, label %40

38:                                               ; preds = %32
  %39 = call i32 (ptr, ...) @printf(ptr noundef @.str.146)
  br label %40

40:                                               ; preds = %38, %32
  %41 = call i32 (ptr, ...) @printf(ptr noundef @.str.147)
  %42 = load ptr, ptr %3, align 8, !tbaa !52
  %43 = call i32 @avfilter_filter_pad_count(ptr noundef %42, i32 noundef 0)
  store i32 %43, ptr %5, align 4, !tbaa !10
  store i32 0, ptr %4, align 4, !tbaa !10
  br label %44

44:                                               ; preds = %62, %40
  %45 = load i32, ptr %4, align 4, !tbaa !10
  %46 = load i32, ptr %5, align 4, !tbaa !10
  %47 = icmp slt i32 %45, %46
  br i1 %47, label %48, label %65

48:                                               ; preds = %44
  %49 = load i32, ptr %4, align 4, !tbaa !10
  %50 = load ptr, ptr %3, align 8, !tbaa !52
  %51 = getelementptr inbounds nuw %struct.AVFilter, ptr %50, i32 0, i32 2
  %52 = load ptr, ptr %51, align 8, !tbaa !59
  %53 = load i32, ptr %4, align 4, !tbaa !10
  %54 = call ptr @avfilter_pad_get_name(ptr noundef %52, i32 noundef %53)
  %55 = load ptr, ptr %3, align 8, !tbaa !52
  %56 = getelementptr inbounds nuw %struct.AVFilter, ptr %55, i32 0, i32 2
  %57 = load ptr, ptr %56, align 8, !tbaa !59
  %58 = load i32, ptr %4, align 4, !tbaa !10
  %59 = call i32 @avfilter_pad_get_type(ptr noundef %57, i32 noundef %58)
  %60 = call ptr @av_get_media_type_string(i32 noundef %59)
  %61 = call i32 (ptr, ...) @printf(ptr noundef @.str.148, i32 noundef %49, ptr noundef %54, ptr noundef %60)
  br label %62

62:                                               ; preds = %48
  %63 = load i32, ptr %4, align 4, !tbaa !10
  %64 = add nsw i32 %63, 1
  store i32 %64, ptr %4, align 4, !tbaa !10
  br label %44, !llvm.loop !60

65:                                               ; preds = %44
  %66 = load ptr, ptr %3, align 8, !tbaa !52
  %67 = getelementptr inbounds nuw %struct.AVFilter, ptr %66, i32 0, i32 5
  %68 = load i32, ptr %67, align 8, !tbaa !58
  %69 = and i32 %68, 1
  %70 = icmp ne i32 %69, 0
  br i1 %70, label %71, label %73

71:                                               ; preds = %65
  %72 = call i32 (ptr, ...) @printf(ptr noundef @.str.149)
  br label %79

73:                                               ; preds = %65
  %74 = load i32, ptr %5, align 4, !tbaa !10
  %75 = icmp ne i32 %74, 0
  br i1 %75, label %78, label %76

76:                                               ; preds = %73
  %77 = call i32 (ptr, ...) @printf(ptr noundef @.str.150)
  br label %78

78:                                               ; preds = %76, %73
  br label %79

79:                                               ; preds = %78, %71
  %80 = call i32 (ptr, ...) @printf(ptr noundef @.str.151)
  %81 = load ptr, ptr %3, align 8, !tbaa !52
  %82 = call i32 @avfilter_filter_pad_count(ptr noundef %81, i32 noundef 1)
  store i32 %82, ptr %5, align 4, !tbaa !10
  store i32 0, ptr %4, align 4, !tbaa !10
  br label %83

83:                                               ; preds = %101, %79
  %84 = load i32, ptr %4, align 4, !tbaa !10
  %85 = load i32, ptr %5, align 4, !tbaa !10
  %86 = icmp slt i32 %84, %85
  br i1 %86, label %87, label %104

87:                                               ; preds = %83
  %88 = load i32, ptr %4, align 4, !tbaa !10
  %89 = load ptr, ptr %3, align 8, !tbaa !52
  %90 = getelementptr inbounds nuw %struct.AVFilter, ptr %89, i32 0, i32 3
  %91 = load ptr, ptr %90, align 8, !tbaa !61
  %92 = load i32, ptr %4, align 4, !tbaa !10
  %93 = call ptr @avfilter_pad_get_name(ptr noundef %91, i32 noundef %92)
  %94 = load ptr, ptr %3, align 8, !tbaa !52
  %95 = getelementptr inbounds nuw %struct.AVFilter, ptr %94, i32 0, i32 3
  %96 = load ptr, ptr %95, align 8, !tbaa !61
  %97 = load i32, ptr %4, align 4, !tbaa !10
  %98 = call i32 @avfilter_pad_get_type(ptr noundef %96, i32 noundef %97)
  %99 = call ptr @av_get_media_type_string(i32 noundef %98)
  %100 = call i32 (ptr, ...) @printf(ptr noundef @.str.148, i32 noundef %88, ptr noundef %93, ptr noundef %99)
  br label %101

101:                                              ; preds = %87
  %102 = load i32, ptr %4, align 4, !tbaa !10
  %103 = add nsw i32 %102, 1
  store i32 %103, ptr %4, align 4, !tbaa !10
  br label %83, !llvm.loop !62

104:                                              ; preds = %83
  %105 = load ptr, ptr %3, align 8, !tbaa !52
  %106 = getelementptr inbounds nuw %struct.AVFilter, ptr %105, i32 0, i32 5
  %107 = load i32, ptr %106, align 8, !tbaa !58
  %108 = and i32 %107, 2
  %109 = icmp ne i32 %108, 0
  br i1 %109, label %110, label %112

110:                                              ; preds = %104
  %111 = call i32 (ptr, ...) @printf(ptr noundef @.str.149)
  br label %118

112:                                              ; preds = %104
  %113 = load i32, ptr %5, align 4, !tbaa !10
  %114 = icmp ne i32 %113, 0
  br i1 %114, label %117, label %115

115:                                              ; preds = %112
  %116 = call i32 (ptr, ...) @printf(ptr noundef @.str.152)
  br label %117

117:                                              ; preds = %115, %112
  br label %118

118:                                              ; preds = %117, %110
  %119 = load ptr, ptr %3, align 8, !tbaa !52
  %120 = getelementptr inbounds nuw %struct.AVFilter, ptr %119, i32 0, i32 4
  %121 = load ptr, ptr %120, align 8, !tbaa !63
  %122 = icmp ne ptr %121, null
  br i1 %122, label %123, label %127

123:                                              ; preds = %118
  %124 = load ptr, ptr %3, align 8, !tbaa !52
  %125 = getelementptr inbounds nuw %struct.AVFilter, ptr %124, i32 0, i32 4
  %126 = load ptr, ptr %125, align 8, !tbaa !63
  call void @show_help_children(ptr noundef %126, i32 noundef 65560)
  br label %127

127:                                              ; preds = %123, %118
  %128 = load ptr, ptr %3, align 8, !tbaa !52
  %129 = getelementptr inbounds nuw %struct.AVFilter, ptr %128, i32 0, i32 5
  %130 = load i32, ptr %129, align 8, !tbaa !58
  %131 = and i32 %130, 196608
  %132 = icmp ne i32 %131, 0
  br i1 %132, label %133, label %135

133:                                              ; preds = %127
  %134 = call i32 (ptr, ...) @printf(ptr noundef @.str.153)
  br label %135

135:                                              ; preds = %133, %127
  store i32 0, ptr %6, align 4
  br label %136

136:                                              ; preds = %135, %15, %11
  call void @llvm.lifetime.end.p0(i64 4, ptr %5) #11
  call void @llvm.lifetime.end.p0(i64 4, ptr %4) #11
  call void @llvm.lifetime.end.p0(i64 8, ptr %3) #11
  %137 = load i32, ptr %6, align 4
  switch i32 %137, label %139 [
    i32 0, label %138
    i32 1, label %138
  ]

138:                                              ; preds = %136, %136
  ret void

139:                                              ; preds = %136
  unreachable
}