; Function Attrs: nounwind uwtable
define internal fastcc void @show_help_filter(ptr noundef %0) unnamed_addr #2 {
  %2 = tail call ptr @avfilter_get_by_name(ptr noundef %0) #17
  %.not = icmp eq ptr %0, null
  br i1 %.not, label %3, label %4

3:                                                ; preds = %1
  tail call void (ptr, i32, ptr, ...) @av_log(ptr noundef null, i32 noundef 16, ptr noundef nonnull @.str.143) #17
  br label %56

4:                                                ; preds = %1
  %.not38 = icmp eq ptr %2, null
  br i1 %.not38, label %5, label %6

5:                                                ; preds = %4
  tail call void (ptr, i32, ptr, ...) @av_log(ptr noundef null, i32 noundef 16, ptr noundef nonnull @.str.144, ptr noundef nonnull %0) #17
  br label %56

6:                                                ; preds = %4
  %7 = load ptr, ptr %2, align 8, !tbaa !46
  %8 = tail call i32 (ptr, ...) @printf(ptr noundef nonnull dereferenceable(1) @.str.145, ptr noundef %7)
  %9 = getelementptr inbounds nuw i8, ptr %2, i64 8
  %10 = load ptr, ptr %9, align 8, !tbaa !49
  %.not39 = icmp eq ptr %10, null
  br i1 %.not39, label %13, label %11

11:                                               ; preds = %6
  %12 = tail call i32 (ptr, ...) @printf(ptr noundef nonnull dereferenceable(1) @.str.20, ptr noundef nonnull %10)
  br label %13

13:                                               ; preds = %11, %6
  %14 = getelementptr inbounds nuw i8, ptr %2, i64 40
  %15 = load i32, ptr %14, align 8, !tbaa !50
  %16 = and i32 %15, 4
  %.not40 = icmp eq i32 %16, 0
  br i1 %.not40, label %18, label %17

17:                                               ; preds = %13
  %puts = tail call i32 @puts(ptr nonnull dereferenceable(1) @str)
  br label %18

18:                                               ; preds = %17, %13
  %puts41 = tail call i32 @puts(ptr nonnull dereferenceable(1) @str.1)
  %19 = tail call i32 @avfilter_filter_pad_count(ptr noundef nonnull %2, i32 noundef 0) #17
  %20 = icmp sgt i32 %19, 0
  br i1 %20, label %.lr.ph, label %._crit_edge

.lr.ph:                                           ; preds = %18
  %21 = getelementptr inbounds nuw i8, ptr %2, i64 16
  br label %22

22:                                               ; preds = %.lr.ph, %22
  %.054 = phi i32 [ 0, %.lr.ph ], [ %29, %22 ]
  %23 = load ptr, ptr %21, align 8, !tbaa !51
  %24 = tail call ptr @avfilter_pad_get_name(ptr noundef %23, i32 noundef %.054) #17
  %25 = load ptr, ptr %21, align 8, !tbaa !51
  %26 = tail call i32 @avfilter_pad_get_type(ptr noundef %25, i32 noundef %.054) #17
  %27 = tail call ptr @av_get_media_type_string(i32 noundef %26) #17
  %28 = tail call i32 (ptr, ...) @printf(ptr noundef nonnull dereferenceable(1) @.str.148, i32 noundef %.054, ptr noundef %24, ptr noundef %27)
  %29 = add nuw nsw i32 %.054, 1
  %exitcond.not = icmp eq i32 %29, %19
  br i1 %exitcond.not, label %._crit_edge, label %22, !llvm.loop !52

._crit_edge:                                      ; preds = %22, %18
  %30 = load i32, ptr %14, align 8, !tbaa !50
  %31 = and i32 %30, 1
  %.not42 = icmp eq i32 %31, 0
  br i1 %.not42, label %32, label %.sink.split

32:                                               ; preds = %._crit_edge
  %.not43 = icmp eq i32 %19, 0
  br i1 %.not43, label %.sink.split, label %33

.sink.split:                                      ; preds = %32, %._crit_edge
  %str.2.sink = phi ptr [ @str.6, %._crit_edge ], [ @str.2, %32 ]
  %puts44 = tail call i32 @puts(ptr nonnull dereferenceable(1) %str.2.sink)
  br label %33

33:                                               ; preds = %.sink.split, %32
  %puts46 = tail call i32 @puts(ptr nonnull dereferenceable(1) @str.4)
  %34 = tail call i32 @avfilter_filter_pad_count(ptr noundef nonnull %2, i32 noundef 1) #17
  %35 = icmp sgt i32 %34, 0
  br i1 %35, label %.lr.ph57, label %._crit_edge58

.lr.ph57:                                         ; preds = %33
  %36 = getelementptr inbounds nuw i8, ptr %2, i64 24
  br label %37

37:                                               ; preds = %.lr.ph57, %37
  %.155 = phi i32 [ 0, %.lr.ph57 ], [ %44, %37 ]
  %38 = load ptr, ptr %36, align 8, !tbaa !53
  %39 = tail call ptr @avfilter_pad_get_name(ptr noundef %38, i32 noundef %.155) #17
  %40 = load ptr, ptr %36, align 8, !tbaa !53
  %41 = tail call i32 @avfilter_pad_get_type(ptr noundef %40, i32 noundef %.155) #17
  %42 = tail call ptr @av_get_media_type_string(i32 noundef %41) #17
  %43 = tail call i32 (ptr, ...) @printf(ptr noundef nonnull dereferenceable(1) @.str.148, i32 noundef %.155, ptr noundef %39, ptr noundef %42)
  %44 = add nuw nsw i32 %.155, 1
  %exitcond59.not = icmp eq i32 %44, %34
  br i1 %exitcond59.not, label %._crit_edge58, label %37, !llvm.loop !54

._crit_edge58:                                    ; preds = %37, %33
  %45 = load i32, ptr %14, align 8, !tbaa !50
  %46 = and i32 %45, 2
  %.not47 = icmp eq i32 %46, 0
  br i1 %.not47, label %47, label %.sink.split60

47:                                               ; preds = %._crit_edge58
  %.not48 = icmp eq i32 %34, 0
  br i1 %.not48, label %.sink.split60, label %48

.sink.split60:                                    ; preds = %47, %._crit_edge58
  %str.5.sink = phi ptr [ @str.6, %._crit_edge58 ], [ @str.5, %47 ]
  %puts49 = tail call i32 @puts(ptr nonnull dereferenceable(1) %str.5.sink)
  br label %48

48:                                               ; preds = %.sink.split60, %47
  %49 = getelementptr inbounds nuw i8, ptr %2, i64 32
  %50 = load ptr, ptr %49, align 8, !tbaa !55
  %.not51 = icmp eq ptr %50, null
  br i1 %.not51, label %52, label %51

51:                                               ; preds = %48
  tail call void @show_help_children(ptr noundef nonnull %50, i32 noundef 65560) #17
  br label %52

52:                                               ; preds = %51, %48
  %53 = load i32, ptr %14, align 8, !tbaa !50
  %54 = and i32 %53, 196608
  %.not52 = icmp eq i32 %54, 0
  br i1 %.not52, label %56, label %55

55:                                               ; preds = %52
  %puts53 = tail call i32 @puts(ptr nonnull dereferenceable(1) @str.7)
  br label %56

56:                                               ; preds = %52, %55, %5, %3
  ret void
}